target datalayout = "e-m:e-p270:32:32-p271:32:32-p272:64:64-i64:64-i128:128-f80:128-n8:16:32:64-S128"
target triple = "x86_64-pc-linux-gnu"

%struct.node_record = type { ptr, ptr, i16, i64, i64, ptr, ptr, ptr, i16, ptr, i16, i16, i32, i32, i64, ptr, i16, i16, ptr, ptr, ptr, ptr, ptr, i64, i64, ptr, ptr, ptr, ptr, i32, ptr, ptr, i64, i64, i32, ptr, i64, ptr, i32, i16, ptr, ptr, i32, ptr, i32, i8, ptr, i32, i16, i16, ptr, i16, i64, i16, i64, ptr, i64, i32, i16, i64, i16, ptr, i16, i64, ptr, i64, i16, i32, i16, ptr, ptr, ptr, i16, i32, i16, i16, i32, ptr, i16, i32 }
%struct.config_record_t = type { i16, i16, i16, i32, ptr, i16, ptr, ptr, i32, i64, ptr, ptr, i64, i16, i16, i32, i16, ptr, ptr, i32 }

@config_list = external global ptr, align 8
@.str.147 = private unnamed_addr constant [39 x i8] c"_update_node_weight: invalid node_name\00", align 1
@.str.148 = private unnamed_addr constant [48 x i8] c"_update_node_weight: nodes %s weight set to: %u\00", align 1

; Function Attrs: nounwind uwtable
define internal void @_update_config_ptr(ptr noundef %0, ptr noundef %1) #0 {
  %3 = alloca ptr, align 8
  %4 = alloca ptr, align 8
  %5 = alloca ptr, align 8
  %6 = alloca i32, align 4
  store ptr %0, ptr %3, align 8
  store ptr %1, ptr %4, align 8
  call void @llvm.lifetime.start.p0(i64 8, ptr %5) #10
  call void @llvm.lifetime.start.p0(i64 4, ptr %6) #10
  store i32 0, ptr %6, align 4
  br label %7

7:                                                ; preds = %16, %2
  %8 = load ptr, ptr %3, align 8
  %9 = call ptr @next_node_bitmap(ptr noundef %8, ptr noundef %6)
  store ptr %9, ptr %5, align 8
  %10 = icmp ne ptr %9, null
  br i1 %10, label %12, label %11

11:                                               ; preds = %7
  call void @llvm.lifetime.end.p0(i64 4, ptr %6) #10
  br label %19

12:                                               ; preds = %7
  %13 = load ptr, ptr %4, align 8
  %14 = load ptr, ptr %5, align 8
  %15 = getelementptr inbounds nuw %struct.node_record, ptr %14, i32 0, i32 9
  store ptr %13, ptr %15, align 8
  br label %16

16:                                               ; preds = %12
  %17 = load i32, ptr %6, align 4
  %18 = add nsw i32 %17, 1
  store i32 %18, ptr %6, align 4
  br label %7, !llvm.loop !27

19:                                               ; preds = %11
  call void @llvm.lifetime.end.p0(i64 8, ptr %5) #10
  ret void
}

; Function Attrs: nounwind uwtable
define internal i32 @_update_node_weight(ptr noundef %0, i32 noundef %1) #0 {
  %3 = alloca i32, align 4
  %4 = alloca ptr, align 8
  %5 = alloca i32, align 4
  %6 = alloca ptr, align 8
  %7 = alloca ptr, align 8
  %8 = alloca ptr, align 8
  %9 = alloca ptr, align 8
  %10 = alloca ptr, align 8
  %11 = alloca ptr, align 8
  %12 = alloca i32, align 4
  %13 = alloca i32, align 4
  %14 = alloca i32, align 4
  %15 = alloca i32, align 4
  store ptr %0, ptr %4, align 8
  store i32 %1, ptr %5, align 4
  call void @llvm.lifetime.start.p0(i64 8, ptr %6) #10
  store ptr null, ptr %6, align 8
  call void @llvm.lifetime.start.p0(i64 8, ptr %7) #10
  call void @llvm.lifetime.start.p0(i64 8, ptr %8) #10
  call void @llvm.lifetime.start.p0(i64 8, ptr %9) #10
  call void @llvm.lifetime.start.p0(i64 8, ptr %10) #10
  call void @llvm.lifetime.start.p0(i64 8, ptr %11) #10
  store ptr null, ptr %11, align 8
  call void @llvm.lifetime.start.p0(i64 4, ptr %12) #10
  call void @llvm.lifetime.start.p0(i64 4, ptr %13) #10
  call void @llvm.lifetime.start.p0(i64 4, ptr %14) #10
  %16 = load ptr, ptr %4, align 8
  %17 = call i32 @node_name2bitmap(ptr noundef %16, i1 noundef zeroext false, ptr noundef %6, ptr noundef null)
  store i32 %17, ptr %12, align 4
  %18 = load i32, ptr %12, align 4
  %19 = icmp ne i32 %18, 0
  br i1 %19, label %20, label %32

20:                                               ; preds = %2
  br label %21

21:                                               ; preds = %20
  br label %22

22:                                               ; preds = %21
  %23 = call i32 @get_log_level()
  %24 = icmp sge i32 %23, 3
  br i1 %24, label %25, label %26

25:                                               ; preds = %22
  call void (i32, ptr, ...) @log_var(i32 noundef 3, ptr noundef @.str.147)
  br label %26

26:                                               ; preds = %25, %22
  br label %27

27:                                               ; preds = %26
  br label %28

28:                                               ; preds = %27
  br label %29

29:                                               ; preds = %28
  br label %30

30:                                               ; preds = %29
  %31 = load i32, ptr %12, align 4
  store i32 %31, ptr %3, align 4
  store i32 1, ptr %15, align 4
  br label %131

32:                                               ; preds = %2
  %33 = load ptr, ptr @config_list, align 8
  %34 = call ptr @list_iterator_create(ptr noundef %33)
  store ptr %34, ptr %8, align 8
  br label %35

35:                                               ; preds = %109, %32
  %36 = load ptr, ptr %8, align 8
  %37 = call ptr @list_next(ptr noundef %36)
  store ptr %37, ptr %9, align 8
  %38 = icmp ne ptr %37, null
  br i1 %38, label %39, label %110

39:                                               ; preds = %35
  %40 = load ptr, ptr %9, align 8
  %41 = load ptr, ptr %11, align 8
  %42 = icmp eq ptr %40, %41
  br i1 %42, label %43, label %44

43:                                               ; preds = %39
  br label %110

44:                                               ; preds = %39
  %45 = load ptr, ptr %6, align 8
  %46 = call ptr @bit_copy(ptr noundef %45)
  store ptr %46, ptr %7, align 8
  %47 = load ptr, ptr %7, align 8
  %48 = load ptr, ptr %9, align 8
  %49 = getelementptr inbounds nuw %struct.config_record_t, ptr %48, i32 0, i32 10
  %50 = load ptr, ptr %49, align 8
  call void @bit_and(ptr noundef %47, ptr noundef %50)
  %51 = load ptr, ptr %9, align 8
  %52 = getelementptr inbounds nuw %struct.config_record_t, ptr %51, i32 0, i32 10
  %53 = load ptr, ptr %52, align 8
  %54 = call i32 @bit_set_count(ptr noundef %53)
  store i32 %54, ptr %13, align 4
  %55 = load ptr, ptr %7, align 8
  %56 = call i32 @bit_set_count(ptr noundef %55)
  store i32 %56, ptr %14, align 4
  %57 = load i32, ptr %14, align 4
  %58 = icmp eq i32 %57, 0
  br i1 %58, label %59, label %60

59:                                               ; preds = %44
  br label %102

60:                                               ; preds = %44
  %61 = load i32, ptr %14, align 4
  %62 = load i32, ptr %13, align 4
  %63 = icmp eq i32 %61, %62
  br i1 %63, label %64, label %68

64:                                               ; preds = %60
  %65 = load i32, ptr %5, align 4
  %66 = load ptr, ptr %9, align 8
  %67 = getelementptr inbounds nuw %struct.config_record_t, ptr %66, i32 0, i32 19
  store i32 %65, ptr %67, align 8
  br label %101

68:                                               ; preds = %60
  %69 = load ptr, ptr %9, align 8
  %70 = call ptr @_dup_config(ptr noundef %69)
  store ptr %70, ptr %10, align 8
  %71 = load ptr, ptr %11, align 8
  %72 = icmp eq ptr %71, null
  br i1 %72, label %73, label %75

73:                                               ; preds = %68
  %74 = load ptr, ptr %10, align 8
  store ptr %74, ptr %11, align 8
  br label %75

75:                                               ; preds = %73, %68
  %76 = load i32, ptr %5, align 4
  %77 = load ptr, ptr %10, align 8
  %78 = getelementptr inbounds nuw %struct.config_record_t, ptr %77, i32 0, i32 19
  store i32 %76, ptr %78, align 8
  %79 = load ptr, ptr %7, align 8
  %80 = call ptr @bit_copy(ptr noundef %79)
  %81 = load ptr, ptr %10, align 8
  %82 = getelementptr inbounds nuw %struct.config_record_t, ptr %81, i32 0, i32 10
  store ptr %80, ptr %82, align 8
  %83 = load ptr, ptr %7, align 8
  %84 = call ptr @bitmap2node_name(ptr noundef %83)
  %85 = load ptr, ptr %10, align 8
  %86 = getelementptr inbounds nuw %struct.config_record_t, ptr %85, i32 0, i32 11
  store ptr %84, ptr %86, align 8
  %87 = load ptr, ptr %7, align 8
  %88 = load ptr, ptr %10, align 8
  call void @_update_config_ptr(ptr noundef %87, ptr noundef %88)
  %89 = load ptr, ptr %9, align 8
  %90 = getelementptr inbounds nuw %struct.config_record_t, ptr %89, i32 0, i32 10
  %91 = load ptr, ptr %90, align 8
  %92 = load ptr, ptr %7, align 8
  call void @bit_and_not(ptr noundef %91, ptr noundef %92)
  %93 = load ptr, ptr %9, align 8
  %94 = getelementptr inbounds nuw %struct.config_record_t, ptr %93, i32 0, i32 11
  call void @slurm_xfree(ptr noundef %94)
  %95 = load ptr, ptr %9, align 8
  %96 = getelementptr inbounds nuw %struct.config_record_t, ptr %95, i32 0, i32 10
  %97 = load ptr, ptr %96, align 8
  %98 = call ptr @bitmap2node_name(ptr noundef %97)
  %99 = load ptr, ptr %9, align 8
  %100 = getelementptr inbounds nuw %struct.config_record_t, ptr %99, i32 0, i32 11
  store ptr %98, ptr %100, align 8
  br label %101

101:                                              ; preds = %75, %64
  br label %102

102:                                              ; preds = %101, %59
  br label %103

103:                                              ; preds = %102
  %104 = load ptr, ptr %7, align 8
  %105 = icmp ne ptr %104, null
  br i1 %105, label %106, label %107

106:                                              ; preds = %103
  call void @slurm_bit_free(ptr noundef %7)
  br label %107

107:                                              ; preds = %106, %103
  store ptr null, ptr %7, align 8
  br label %108

108:                                              ; preds = %107
  br label %109

109:                                              ; preds = %108
  br label %35, !llvm.loop !25

110:                                              ; preds = %43, %35
  %111 = load ptr, ptr %8, align 8
  call void @list_iterator_destroy(ptr noundef %111)
  br label %112

112:                                              ; preds = %110
  %113 = load ptr, ptr %6, align 8
  %114 = icmp ne ptr %113, null
  br i1 %114, label %115, label %116

115:                                              ; preds = %112
  call void @slurm_bit_free(ptr noundef %6)
  br label %116

116:                                              ; preds = %115, %112
  store ptr null, ptr %6, align 8
  br label %117

117:                                              ; preds = %116
  br label %118

118:                                              ; preds = %117
  br label %119

119:                                              ; preds = %118
  br label %120

120:                                              ; preds = %119
  %121 = call i32 @get_log_level()
  %122 = icmp sge i32 %121, 3
  br i1 %122, label %123, label %126

123:                                              ; preds = %120
  %124 = load ptr, ptr %4, align 8
  %125 = load i32, ptr %5, align 4
  call void (i32, ptr, ...) @log_var(i32 noundef 3, ptr noundef @.str.148, ptr noundef %124, i32 noundef %125)
  br label %126

126:                                              ; preds = %123, %120
  br label %127

127:                                              ; preds = %126
  br label %128

128:                                              ; preds = %127
  br label %129

129:                                              ; preds = %128
  br label %130

130:                                              ; preds = %129
  store i32 0, ptr %3, align 4
  store i32 1, ptr %15, align 4
  br label %131

131:                                              ; preds = %130, %30
  call void @llvm.lifetime.end.p0(i64 4, ptr %14) #10
  call void @llvm.lifetime.end.p0(i64 4, ptr %13) #10
  call void @llvm.lifetime.end.p0(i64 4, ptr %12) #10
  call void @llvm.lifetime.end.p0(i64 8, ptr %11) #10
  call void @llvm.lifetime.end.p0(i64 8, ptr %10) #10
  call void @llvm.lifetime.end.p0(i64 8, ptr %9) #10
  call void @llvm.lifetime.end.p0(i64 8, ptr %8) #10
  call void @llvm.lifetime.end.p0(i64 8, ptr %7) #10
  call void @llvm.lifetime.end.p0(i64 8, ptr %6) #10
  %132 = load i32, ptr %3, align 4
  ret i32 %132
}