; Function Attrs: nounwind uwtable
define internal fastcc i32 @_update_node_weight(ptr noundef %0, i32 noundef %1) unnamed_addr #0 {
  %3 = alloca i32, align 4
  %4 = alloca ptr, align 8
  %5 = alloca ptr, align 8
  call void @llvm.lifetime.start.p0(i64 8, ptr nonnull %4) #15
  store ptr null, ptr %4, align 8
  call void @llvm.lifetime.start.p0(i64 8, ptr nonnull %5) #15
  %6 = call i32 @node_name2bitmap(ptr noundef %0, i1 noundef zeroext false, ptr noundef nonnull %4, ptr noundef null) #15
  %.not = icmp eq i32 %6, 0
  br i1 %.not, label %11, label %7

7:                                                ; preds = %2
  %8 = call i32 @get_log_level() #15
  %9 = icmp sgt i32 %8, 2
  br i1 %9, label %10, label %64

10:                                               ; preds = %7
  call void (i32, ptr, ...) @log_var(i32 noundef 3, ptr noundef nonnull @.str.147) #15
  br label %64

11:                                               ; preds = %2
  %12 = load ptr, ptr @config_list, align 8
  %13 = call ptr @list_iterator_create(ptr noundef %12) #15
  %14 = call ptr @list_next(ptr noundef %13) #15
  %15 = icmp eq ptr %14, null
  br i1 %15, label %._crit_edge, label %.lr.ph

.lr.ph:                                           ; preds = %11, %55
  %16 = phi ptr [ %56, %55 ], [ %14, %11 ]
  %.02836 = phi ptr [ %.2, %55 ], [ null, %11 ]
  %17 = load ptr, ptr %4, align 8
  %18 = call ptr @bit_copy(ptr noundef %17) #15
  store ptr %18, ptr %5, align 8
  %19 = getelementptr inbounds nuw i8, ptr %16, i64 64
  %20 = load ptr, ptr %19, align 8
  call void @bit_and(ptr noundef %18, ptr noundef %20) #15
  %21 = load ptr, ptr %19, align 8
  %22 = call i32 @bit_set_count(ptr noundef %21) #15
  %23 = load ptr, ptr %5, align 8
  %24 = call i32 @bit_set_count(ptr noundef %23) #15
  %25 = icmp eq i32 %24, 0
  br i1 %25, label %52, label %26

26:                                               ; preds = %.lr.ph
  %27 = icmp eq i32 %24, %22
  br i1 %27, label %28, label %30

28:                                               ; preds = %26
  %29 = getelementptr inbounds nuw i8, ptr %16, i64 120
  store i32 %1, ptr %29, align 8
  br label %52

30:                                               ; preds = %26
  %31 = call ptr @_dup_config(ptr noundef nonnull %16)
  %32 = icmp eq ptr %.02836, null
  %spec.select = select i1 %32, ptr %31, ptr %.02836
  %33 = getelementptr inbounds nuw i8, ptr %31, i64 120
  store i32 %1, ptr %33, align 8
  %34 = load ptr, ptr %5, align 8
  %35 = call ptr @bit_copy(ptr noundef %34) #15
  %36 = getelementptr inbounds nuw i8, ptr %31, i64 64
  store ptr %35, ptr %36, align 8
  %37 = load ptr, ptr %5, align 8
  %38 = call ptr @bitmap2node_name(ptr noundef %37) #15
  %39 = getelementptr inbounds nuw i8, ptr %31, i64 72
  store ptr %38, ptr %39, align 8
  %40 = load ptr, ptr %5, align 8
  call void @llvm.lifetime.start.p0(i64 4, ptr nonnull %3) #15
  store i32 0, ptr %3, align 4
  %41 = call ptr @next_node_bitmap(ptr noundef %40, ptr noundef nonnull %3) #15
  %.not3.i = icmp eq ptr %41, null
  br i1 %.not3.i, label %_update_config_ptr.exit, label %.lr.ph.i

.lr.ph.i:                                         ; preds = %30, %.lr.ph.i
  %42 = phi ptr [ %46, %.lr.ph.i ], [ %41, %30 ]
  %43 = getelementptr inbounds nuw i8, ptr %42, i64 72
  store ptr %31, ptr %43, align 8
  %44 = load i32, ptr %3, align 4
  %45 = add nsw i32 %44, 1
  store i32 %45, ptr %3, align 4
  %46 = call ptr @next_node_bitmap(ptr noundef %40, ptr noundef nonnull %3) #15
  %.not.i = icmp eq ptr %46, null
  br i1 %.not.i, label %_update_config_ptr.exit, label %.lr.ph.i, !llvm.loop !21

_update_config_ptr.exit:                          ; preds = %.lr.ph.i, %30
  call void @llvm.lifetime.end.p0(i64 4, ptr nonnull %3) #15
  %47 = load ptr, ptr %19, align 8
  %48 = load ptr, ptr %5, align 8
  call void @bit_and_not(ptr noundef %47, ptr noundef %48) #15
  %49 = getelementptr inbounds nuw i8, ptr %16, i64 72
  call void @slurm_xfree(ptr noundef nonnull %49) #15
  %50 = load ptr, ptr %19, align 8
  %51 = call ptr @bitmap2node_name(ptr noundef %50) #15
  store ptr %51, ptr %49, align 8
  br label %52

52:                                               ; preds = %.lr.ph, %_update_config_ptr.exit, %28
  %.2 = phi ptr [ %.02836, %.lr.ph ], [ %.02836, %28 ], [ %spec.select, %_update_config_ptr.exit ]
  %53 = load ptr, ptr %5, align 8
  %.not33 = icmp eq ptr %53, null
  br i1 %.not33, label %55, label %54

54:                                               ; preds = %52
  call void @slurm_bit_free(ptr noundef nonnull %5) #15
  br label %55

55:                                               ; preds = %54, %52
  store ptr null, ptr %5, align 8
  %56 = call ptr @list_next(ptr noundef %13) #15
  %.not32 = icmp eq ptr %56, null
  %57 = icmp eq ptr %56, %.2
  %or.cond = select i1 %.not32, i1 true, i1 %57
  br i1 %or.cond, label %._crit_edge, label %.lr.ph, !llvm.loop !25

._crit_edge:                                      ; preds = %55, %11
  call void @list_iterator_destroy(ptr noundef %13) #15
  %58 = load ptr, ptr %4, align 8
  %.not34 = icmp eq ptr %58, null
  br i1 %.not34, label %60, label %59

59:                                               ; preds = %._crit_edge
  call void @slurm_bit_free(ptr noundef nonnull %4) #15
  br label %60

60:                                               ; preds = %59, %._crit_edge
  store ptr null, ptr %4, align 8
  %61 = call i32 @get_log_level() #15
  %62 = icmp sgt i32 %61, 2
  br i1 %62, label %63, label %64

63:                                               ; preds = %60
  call void (i32, ptr, ...) @log_var(i32 noundef 3, ptr noundef nonnull @.str.148, ptr noundef %0, i32 noundef %1) #15
  br label %64

64:                                               ; preds = %60, %63, %7, %10
  %.0 = phi i32 [ %6, %10 ], [ %6, %7 ], [ 0, %63 ], [ 0, %60 ]
  call void @llvm.lifetime.end.p0(i64 8, ptr nonnull %5) #15
  call void @llvm.lifetime.end.p0(i64 8, ptr nonnull %4) #15
  ret i32 %.0
}